target datalayout = "e-m:e-p270:32:32-p271:32:32-p272:64:64-i64:64-i128:128-f80:128-n8:16:32:64-S128"
target triple = "x86_64-unknown-linux-gnu"

%"class.datalog::table_signature" = type <{ %"class.datalog::tr_infrastructure<datalog::table_traits>::signature_base", i32, [4 x i8] }>
%"class.datalog::tr_infrastructure<datalog::table_traits>::signature_base" = type { %class.svector }
%class.svector = type { %class.vector }
%class.vector = type { ptr }
%"class.datalog::tr_infrastructure<datalog::table_traits>::base_ancestor" = type <{ ptr, ptr, %"class.datalog::table_signature", i32, [4 x i8] }>
%"class.datalog::tr_infrastructure<datalog::table_traits>::plugin_object" = type { ptr, i32, %class.symbol, ptr }
%class.symbol = type { ptr }
%"class.datalog::hashtable_table_plugin::join_fn" = type <{ %"class.datalog::tr_infrastructure<datalog::table_traits>::convenient_join_fn", i32, [4 x i8] }>
%"class.datalog::tr_infrastructure<datalog::table_traits>::convenient_join_fn" = type { %"class.datalog::tr_infrastructure<datalog::table_traits>::join_fn", %"class.datalog::table_signature", %class.svector.0, %class.svector.0 }
%"class.datalog::tr_infrastructure<datalog::table_traits>::join_fn" = type { %"class.datalog::tr_infrastructure<datalog::table_traits>::base_fn" }
%"class.datalog::tr_infrastructure<datalog::table_traits>::base_fn" = type { ptr }
%class.svector.0 = type { %class.vector.1 }
%class.vector.1 = type { ptr }

; Function Attrs: mustprogress uwtable
define linkonce_odr hidden void @_ZN7datalog22hashtable_table_plugin7join_fnC2ERKNS_15table_signatureES4_jPKjS6_(ptr noundef nonnull align 8 dereferenceable(44) %this, ptr noundef nonnull align 8 dereferenceable(12) %t1_sig, ptr noundef nonnull align 8 dereferenceable(12) %t2_sig, i32 noundef %col_cnt, ptr noundef %cols1, ptr noundef %cols2) unnamed_addr #4 comdat align 2 {
entry:
  %this.addr = alloca ptr, align 8
  %t1_sig.addr = alloca ptr, align 8
  %t2_sig.addr = alloca ptr, align 8
  %col_cnt.addr = alloca i32, align 4
  %cols1.addr = alloca ptr, align 8
  %cols2.addr = alloca ptr, align 8
  store ptr %this, ptr %this.addr, align 8
  store ptr %t1_sig, ptr %t1_sig.addr, align 8
  store ptr %t2_sig, ptr %t2_sig.addr, align 8
  store i32 %col_cnt, ptr %col_cnt.addr, align 4
  store ptr %cols1, ptr %cols1.addr, align 8
  store ptr %cols2, ptr %cols2.addr, align 8
  %this1 = load ptr, ptr %this.addr, align 8
  %0 = load ptr, ptr %t1_sig.addr, align 8
  %1 = load ptr, ptr %t2_sig.addr, align 8
  %2 = load i32, ptr %col_cnt.addr, align 4
  %3 = load ptr, ptr %cols1.addr, align 8
  %4 = load ptr, ptr %cols2.addr, align 8
  call void @_ZN7datalog17tr_infrastructureINS_12table_traitsEE18convenient_join_fnC2ERKNS_15table_signatureES6_jPKjS8_(ptr noundef nonnull align 8 dereferenceable(40) %this1, ptr noundef nonnull align 8 dereferenceable(12) %0, ptr noundef nonnull align 8 dereferenceable(12) %1, i32 noundef %2, ptr noundef %3, ptr noundef %4)
  store ptr getelementptr inbounds ({ [5 x ptr] }, ptr @_ZTVN7datalog22hashtable_table_plugin7join_fnE, i32 0, i32 0, i32 2), ptr %this1, align 8
  %m_joined_col_cnt = getelementptr inbounds %"class.datalog::hashtable_table_plugin::join_fn", ptr %this1, i32 0, i32 1
  %5 = load i32, ptr %col_cnt.addr, align 4
  store i32 %5, ptr %m_joined_col_cnt, align 8
  ret void
}

; Function Attrs: mustprogress nounwind uwtable
define linkonce_odr hidden noundef nonnull align 8 dereferenceable(12) ptr @_ZNK7datalog17tr_infrastructureINS_12table_traitsEE13base_ancestor13get_signatureEv(ptr noundef nonnull align 8 dereferenceable(36) %this) #5 comdat align 2 {
entry:
  %this.addr = alloca ptr, align 8
  store ptr %this, ptr %this.addr, align 8
  %this1 = load ptr, ptr %this.addr, align 8
  %m_signature = getelementptr inbounds %"class.datalog::tr_infrastructure<datalog::table_traits>::base_ancestor", ptr %this1, i32 0, i32 2
  ret ptr %m_signature
}

; Function Attrs: mustprogress nounwind uwtable
define linkonce_odr hidden noundef i32 @_ZNK7datalog17tr_infrastructureINS_12table_traitsEE13plugin_object8get_kindEv(ptr noundef nonnull align 8 dereferenceable(32) %this) #5 comdat align 2 {
entry:
  %this.addr = alloca ptr, align 8
  store ptr %this, ptr %this.addr, align 8
  %this1 = load ptr, ptr %this.addr, align 8
  %m_kind = getelementptr inbounds %"class.datalog::tr_infrastructure<datalog::table_traits>::plugin_object", ptr %this1, i32 0, i32 1
  %0 = load i32, ptr %m_kind, align 8
  ret i32 %0
}

; Function Attrs: mustprogress nounwind uwtable
define linkonce_odr hidden noundef i32 @_ZNK7datalog17tr_infrastructureINS_12table_traitsEE13base_ancestor8get_kindEv(ptr noundef nonnull align 8 dereferenceable(36) %this) #5 comdat align 2 {
entry:
  %this.addr = alloca ptr, align 8
  store ptr %this, ptr %this.addr, align 8
  %this1 = load ptr, ptr %this.addr, align 8
  %m_kind = getelementptr inbounds %"class.datalog::tr_infrastructure<datalog::table_traits>::base_ancestor", ptr %this1, i32 0, i32 3
  %0 = load i32, ptr %m_kind, align 8
  ret i32 %0
}

; Function Attrs: mustprogress uwtable
define hidden noundef ptr @_ZN7datalog22hashtable_table_plugin10mk_join_fnERKNS_10table_baseES3_jPKjS5_(ptr noundef nonnull align 8 dereferenceable(32) %this, ptr noundef nonnull align 8 dereferenceable(36) %t1, ptr noundef nonnull align 8 dereferenceable(36) %t2, i32 noundef %col_cnt, ptr noundef %cols1, ptr noundef %cols2) unnamed_addr #4 align 2 {
entry:
  %retval = alloca ptr, align 8
  %this.addr = alloca ptr, align 8
  %t1.addr = alloca ptr, align 8
  %t2.addr = alloca ptr, align 8
  %col_cnt.addr = alloca i32, align 4
  %cols1.addr = alloca ptr, align 8
  %cols2.addr = alloca ptr, align 8
  store ptr %this, ptr %this.addr, align 8
  store ptr %t1, ptr %t1.addr, align 8
  store ptr %t2, ptr %t2.addr, align 8
  store i32 %col_cnt, ptr %col_cnt.addr, align 4
  store ptr %cols1, ptr %cols1.addr, align 8
  store ptr %cols2, ptr %cols2.addr, align 8
  %this1 = load ptr, ptr %this.addr, align 8
  %0 = load ptr, ptr %t1.addr, align 8
  %call = call noundef i32 @_ZNK7datalog17tr_infrastructureINS_12table_traitsEE13base_ancestor8get_kindEv(ptr noundef nonnull align 8 dereferenceable(36) %0)
  %call2 = call noundef i32 @_ZNK7datalog17tr_infrastructureINS_12table_traitsEE13plugin_object8get_kindEv(ptr noundef nonnull align 8 dereferenceable(32) %this1)
  %cmp = icmp ne i32 %call, %call2
  br i1 %cmp, label %if.then, label %lor.lhs.false

lor.lhs.false:                                    ; preds = %entry
  %1 = load ptr, ptr %t2.addr, align 8
  %call3 = call noundef i32 @_ZNK7datalog17tr_infrastructureINS_12table_traitsEE13base_ancestor8get_kindEv(ptr noundef nonnull align 8 dereferenceable(36) %1)
  %call4 = call noundef i32 @_ZNK7datalog17tr_infrastructureINS_12table_traitsEE13plugin_object8get_kindEv(ptr noundef nonnull align 8 dereferenceable(32) %this1)
  %cmp5 = icmp ne i32 %call3, %call4
  br i1 %cmp5, label %if.then, label %if.end

if.then:                                          ; preds = %lor.lhs.false, %entry
  store ptr null, ptr %retval, align 8
  br label %return

if.end:                                           ; preds = %lor.lhs.false
  %call6 = call noalias noundef ptr @_ZN6memory8allocateEm(i64 noundef 48)
  %2 = load ptr, ptr %t1.addr, align 8
  %call7 = call noundef nonnull align 8 dereferenceable(12) ptr @_ZNK7datalog17tr_infrastructureINS_12table_traitsEE13base_ancestor13get_signatureEv(ptr noundef nonnull align 8 dereferenceable(36) %2)
  %3 = load ptr, ptr %t2.addr, align 8
  %call8 = call noundef nonnull align 8 dereferenceable(12) ptr @_ZNK7datalog17tr_infrastructureINS_12table_traitsEE13base_ancestor13get_signatureEv(ptr noundef nonnull align 8 dereferenceable(36) %3)
  %4 = load i32, ptr %col_cnt.addr, align 4
  %5 = load ptr, ptr %cols1.addr, align 8
  %6 = load ptr, ptr %cols2.addr, align 8
  call void @_ZN7datalog22hashtable_table_plugin7join_fnC2ERKNS_15table_signatureES4_jPKjS6_(ptr noundef nonnull align 8 dereferenceable(44) %call6, ptr noundef nonnull align 8 dereferenceable(12) %call7, ptr noundef nonnull align 8 dereferenceable(12) %call8, i32 noundef %4, ptr noundef %5, ptr noundef %6)
  store ptr %call6, ptr %retval, align 8
  br label %return

return:                                           ; preds = %if.end, %if.then
  %7 = load ptr, ptr %retval, align 8
  ret ptr %7
}