; Function Attrs: mustprogress uwtable
define hidden noundef ptr @_ZN7datalog22hashtable_table_plugin10mk_join_fnERKNS_10table_baseES3_jPKjS5_(ptr nocapture noundef nonnull readonly align 8 dereferenceable(32) %this, ptr noundef nonnull align 8 dereferenceable(36) %t1, ptr noundef nonnull align 8 dereferenceable(36) %t2, i32 noundef %col_cnt, ptr noundef %cols1, ptr noundef %cols2) unnamed_addr #3 align 2 {
entry:
  %m_kind.i = getelementptr inbounds i8, ptr %t1, i64 32
  %0 = load i32, ptr %m_kind.i, align 8
  %m_kind.i3 = getelementptr inbounds i8, ptr %this, i64 8
  %1 = load i32, ptr %m_kind.i3, align 8
  %cmp.not = icmp eq i32 %0, %1
  %m_kind.i4 = getelementptr inbounds i8, ptr %t2, i64 32
  %2 = load i32, ptr %m_kind.i4, align 8
  %cmp5.not = icmp eq i32 %2, %1
  %or.cond = select i1 %cmp.not, i1 %cmp5.not, i1 false
  br i1 %or.cond, label %if.end, label %return

if.end:                                           ; preds = %entry
  %call6 = tail call noalias noundef ptr @_ZN6memory8allocateEm(i64 noundef 48)
  %m_signature.i = getelementptr inbounds i8, ptr %t1, i64 16
  %m_signature.i6 = getelementptr inbounds i8, ptr %t2, i64 16
  tail call void @_ZN7datalog17tr_infrastructureINS_12table_traitsEE18convenient_join_fnC2ERKNS_15table_signatureES6_jPKjS8_(ptr noundef nonnull align 8 dereferenceable(40) %call6, ptr noundef nonnull align 8 dereferenceable(12) %m_signature.i, ptr noundef nonnull align 8 dereferenceable(12) %m_signature.i6, i32 noundef %col_cnt, ptr noundef %cols1, ptr noundef %cols2)
  store ptr getelementptr inbounds ({ [5 x ptr] }, ptr @_ZTVN7datalog22hashtable_table_plugin7join_fnE, i64 0, i32 0, i64 2), ptr %call6, align 8
  %m_joined_col_cnt.i = getelementptr inbounds i8, ptr %call6, i64 40
  store i32 %col_cnt, ptr %m_joined_col_cnt.i, align 8
  br label %return

return:                                           ; preds = %entry, %if.end
  %retval.0 = phi ptr [ %call6, %if.end ], [ null, %entry ]
  ret ptr %retval.0
}